target datalayout = "e-m:e-p270:32:32-p271:32:32-p272:64:64-i64:64-i128:128-f80:128-n8:16:32:64-S128"
target triple = "x86_64-pc-linux-gnu"

%"class.cv::bioinspired::BasicRetinaFilter" = type { %"class.cv::bioinspired::TemplateBuffer", %"class.std::valarray", i32, i32, %"class.std::valarray", %"class.std::valarray", %"class.std::valarray", float, float, float, float, float, float, float, float }
%"class.cv::bioinspired::TemplateBuffer" = type { ptr, %"class.std::valarray", i64, i64, i64, i64, i64 }
%"class.std::valarray" = type { i64, ptr }

; Function Attrs: inlinehint mustprogress nounwind uwtable
define linkonce_odr hidden noundef i32 @_ZN2cv11bioinspired14TemplateBufferIfE12getNBcolumnsEv(ptr noundef nonnull align 8 dereferenceable(64) %0) #6 comdat align 2 {
  %2 = alloca ptr, align 8
  store ptr %0, ptr %2, align 8, !tbaa !23
  %3 = load ptr, ptr %2, align 8
  %4 = getelementptr inbounds nuw %"class.cv::bioinspired::TemplateBuffer", ptr %3, i32 0, i32 3
  %5 = load i64, ptr %4, align 8, !tbaa !30
  %6 = trunc i64 %5 to i32
  ret i32 %6
}

; Function Attrs: inlinehint mustprogress nounwind uwtable
define linkonce_odr hidden noundef i32 @_ZN2cv11bioinspired14TemplateBufferIfE9getNBrowsEv(ptr noundef nonnull align 8 dereferenceable(64) %0) #6 comdat align 2 {
  %2 = alloca ptr, align 8
  store ptr %0, ptr %2, align 8, !tbaa !23
  %3 = load ptr, ptr %2, align 8
  %4 = getelementptr inbounds nuw %"class.cv::bioinspired::TemplateBuffer", ptr %3, i32 0, i32 2
  %5 = load i64, ptr %4, align 8, !tbaa !29
  %6 = trunc i64 %5 to i32
  ret i32 %6
}

; Function Attrs: mustprogress uwtable
define hidden void @_ZN2cv11bioinspired17BasicRetinaFilter27_local_verticalCausalFilterEPfjjPKj(ptr noundef nonnull align 8 dereferenceable(168) %0, ptr noundef %1, i32 noundef %2, i32 noundef %3, ptr noundef %4) #4 align 2 {
  %6 = alloca ptr, align 8
  %7 = alloca ptr, align 8
  %8 = alloca i32, align 4
  %9 = alloca i32, align 4
  %10 = alloca ptr, align 8
  %11 = alloca ptr, align 8
  %12 = alloca i32, align 4
  %13 = alloca i32, align 4
  %14 = alloca float, align 4
  %15 = alloca ptr, align 8
  %16 = alloca i32, align 4
  store ptr %0, ptr %6, align 8, !tbaa !3
  store ptr %1, ptr %7, align 8, !tbaa !49
  store i32 %2, ptr %8, align 4, !tbaa !8
  store i32 %3, ptr %9, align 4, !tbaa !8
  store ptr %4, ptr %10, align 8, !tbaa !113
  %17 = load ptr, ptr %6, align 8
  call void @llvm.lifetime.start.p0(i64 8, ptr %11) #3
  %18 = load ptr, ptr %10, align 8, !tbaa !113
  store ptr %18, ptr %11, align 8, !tbaa !113
  call void @llvm.lifetime.start.p0(i64 4, ptr %12) #3
  %19 = load i32, ptr %8, align 4, !tbaa !8
  store i32 %19, ptr %12, align 4, !tbaa !8
  br label %20

20:                                               ; preds = %61, %5
  %21 = load i32, ptr %12, align 4, !tbaa !8
  %22 = load i32, ptr %9, align 4, !tbaa !8
  %23 = icmp ult i32 %21, %22
  br i1 %23, label %25, label %24

24:                                               ; preds = %20
  store i32 2, ptr %13, align 4
  call void @llvm.lifetime.end.p0(i64 4, ptr %12) #3
  br label %64

25:                                               ; preds = %20
  call void @llvm.lifetime.start.p0(i64 4, ptr %14) #3
  store float 0.000000e+00, ptr %14, align 4, !tbaa !26
  call void @llvm.lifetime.start.p0(i64 8, ptr %15) #3
  %26 = load ptr, ptr %7, align 8, !tbaa !49
  %27 = load i32, ptr %12, align 4, !tbaa !8
  %28 = zext i32 %27 to i64
  %29 = getelementptr inbounds nuw float, ptr %26, i64 %28
  store ptr %29, ptr %15, align 8, !tbaa !49
  call void @llvm.lifetime.start.p0(i64 4, ptr %16) #3
  store i32 0, ptr %16, align 4, !tbaa !8
  br label %30

30:                                               ; preds = %57, %25
  %31 = load i32, ptr %16, align 4, !tbaa !8
  %32 = getelementptr inbounds nuw %"class.cv::bioinspired::BasicRetinaFilter", ptr %17, i32 0, i32 0
  %33 = call noundef i32 @_ZN2cv11bioinspired14TemplateBufferIfE9getNBrowsEv(ptr noundef nonnull align 8 dereferenceable(64) %32)
  %34 = icmp ult i32 %31, %33
  br i1 %34, label %36, label %35

35:                                               ; preds = %30
  store i32 5, ptr %13, align 4
  call void @llvm.lifetime.end.p0(i64 4, ptr %16) #3
  br label %60

36:                                               ; preds = %30
  %37 = load ptr, ptr %11, align 8, !tbaa !113
  %38 = getelementptr inbounds nuw i32, ptr %37, i32 1
  store ptr %38, ptr %11, align 8, !tbaa !113
  %39 = load i32, ptr %37, align 4, !tbaa !8
  %40 = icmp ne i32 %39, 0
  br i1 %40, label %41, label %48

41:                                               ; preds = %36
  %42 = load ptr, ptr %15, align 8, !tbaa !49
  %43 = load float, ptr %42, align 4, !tbaa !26
  %44 = getelementptr inbounds nuw %"class.cv::bioinspired::BasicRetinaFilter", ptr %17, i32 0, i32 12
  %45 = load float, ptr %44, align 4, !tbaa !46
  %46 = load float, ptr %14, align 4, !tbaa !26
  %47 = call float @llvm.fmuladd.f32(float %45, float %46, float %43)
  store float %47, ptr %14, align 4, !tbaa !26
  br label %49

48:                                               ; preds = %36
  store float 0.000000e+00, ptr %14, align 4, !tbaa !26
  br label %49

49:                                               ; preds = %48, %41
  %50 = load float, ptr %14, align 4, !tbaa !26
  %51 = load ptr, ptr %15, align 8, !tbaa !49
  store float %50, ptr %51, align 4, !tbaa !26
  %52 = getelementptr inbounds nuw %"class.cv::bioinspired::BasicRetinaFilter", ptr %17, i32 0, i32 0
  %53 = call noundef i32 @_ZN2cv11bioinspired14TemplateBufferIfE12getNBcolumnsEv(ptr noundef nonnull align 8 dereferenceable(64) %52)
  %54 = load ptr, ptr %15, align 8, !tbaa !49
  %55 = zext i32 %53 to i64
  %56 = getelementptr inbounds nuw float, ptr %54, i64 %55
  store ptr %56, ptr %15, align 8, !tbaa !49
  br label %57

57:                                               ; preds = %49
  %58 = load i32, ptr %16, align 4, !tbaa !8
  %59 = add i32 %58, 1
  store i32 %59, ptr %16, align 4, !tbaa !8
  br label %30, !llvm.loop !119

60:                                               ; preds = %35
  call void @llvm.lifetime.end.p0(i64 8, ptr %15) #3
  call void @llvm.lifetime.end.p0(i64 4, ptr %14) #3
  br label %61

61:                                               ; preds = %60
  %62 = load i32, ptr %12, align 4, !tbaa !8
  %63 = add i32 %62, 1
  store i32 %63, ptr %12, align 4, !tbaa !8
  br label %20, !llvm.loop !120

64:                                               ; preds = %24
  call void @llvm.lifetime.end.p0(i64 8, ptr %11) #3
  ret void
}