; Function Attrs: mustprogress nofree norecurse nosync nounwind memory(argmem: readwrite) uwtable
define hidden void @_ZN2cv11bioinspired17BasicRetinaFilter27_local_verticalCausalFilterEPfjjPKj(ptr noundef nonnull readonly align 8 captures(none) dereferenceable(168) %0, ptr noundef captures(none) %1, i32 noundef %2, i32 noundef %3, ptr noundef readonly captures(none) %4) local_unnamed_addr #9 align 2 {
  %6 = icmp ult i32 %2, %3
  br i1 %6, label %.lr.ph27, label %._crit_edge28

.lr.ph27:                                         ; preds = %5
  %7 = getelementptr inbounds nuw i8, ptr %0, i64 24
  %8 = load i64, ptr %7, align 8, !tbaa !15
  %9 = trunc i64 %8 to i32
  %.not = icmp eq i32 %9, 0
  %10 = getelementptr inbounds nuw i8, ptr %0, i64 156
  %11 = getelementptr inbounds nuw i8, ptr %0, i64 32
  %12 = load i64, ptr %11, align 8
  %13 = and i64 %12, 4294967295
  br i1 %.not, label %._crit_edge28, label %.lr.ph.us.preheader

.lr.ph.us.preheader:                              ; preds = %.lr.ph27
  %14 = zext i32 %2 to i64
  %wide.trip.count = zext i32 %3 to i64
  br label %.lr.ph.us

.lr.ph.us:                                        ; preds = %.lr.ph.us.preheader, %._crit_edge.us
  %indvars.iv = phi i64 [ %14, %.lr.ph.us.preheader ], [ %indvars.iv.next, %._crit_edge.us ]
  %.01824.us = phi ptr [ %4, %.lr.ph.us.preheader ], [ %17, %._crit_edge.us ]
  %15 = getelementptr inbounds nuw float, ptr %1, i64 %indvars.iv
  br label %16

16:                                               ; preds = %.lr.ph.us, %23
  %.023.us = phi i32 [ 0, %.lr.ph.us ], [ %25, %23 ]
  %.01522.us = phi ptr [ %15, %.lr.ph.us ], [ %24, %23 ]
  %.01621.us = phi float [ 0.000000e+00, %.lr.ph.us ], [ %.1.us, %23 ]
  %.11920.us = phi ptr [ %.01824.us, %.lr.ph.us ], [ %17, %23 ]
  %17 = getelementptr inbounds nuw i8, ptr %.11920.us, i64 4
  %18 = load i32, ptr %.11920.us, align 4, !tbaa !61
  %.not.us = icmp eq i32 %18, 0
  br i1 %.not.us, label %23, label %19

19:                                               ; preds = %16
  %20 = load float, ptr %.01522.us, align 4, !tbaa !11
  %21 = load float, ptr %10, align 4, !tbaa !65
  %22 = tail call float @llvm.fmuladd.f32(float %21, float %.01621.us, float %20)
  br label %23

23:                                               ; preds = %19, %16
  %.1.us = phi float [ %22, %19 ], [ 0.000000e+00, %16 ]
  store float %.1.us, ptr %.01522.us, align 4, !tbaa !11
  %24 = getelementptr inbounds nuw float, ptr %.01522.us, i64 %13
  %25 = add nuw i32 %.023.us, 1
  %exitcond.not = icmp eq i32 %25, %9
  br i1 %exitcond.not, label %._crit_edge.us, label %16, !llvm.loop !123

._crit_edge.us:                                   ; preds = %23
  %indvars.iv.next = add nuw nsw i64 %indvars.iv, 1
  %exitcond31.not = icmp eq i64 %indvars.iv.next, %wide.trip.count
  br i1 %exitcond31.not, label %._crit_edge28, label %.lr.ph.us, !llvm.loop !124

._crit_edge28:                                    ; preds = %._crit_edge.us, %.lr.ph27, %5
  ret void
}